target datalayout = "e-m:e-p270:32:32-p271:32:32-p272:64:64-i64:64-i128:128-f80:128-n8:16:32:64-S128"
target triple = "x86_64-pc-linux-gnu"

%struct.slurm_conf_t = type { i64, ptr, i16, ptr, ptr, ptr, ptr, ptr, i16, ptr, ptr, ptr, ptr, ptr, ptr, ptr, i16, ptr, ptr, ptr, ptr, i16, ptr, ptr, ptr, i64, ptr, ptr, ptr, ptr, i16, ptr, ptr, i16, i32, ptr, i32, ptr, i32, i32, ptr, ptr, i64, i64, ptr, i16, i16, ptr, i32, i32, ptr, i32, ptr, i32, i16, i16, i16, ptr, i16, i16, ptr, ptr, i32, i16, i16, ptr, i32, i16, ptr, ptr, ptr, ptr, i16, ptr, ptr, ptr, ptr, i32, ptr, ptr, ptr, ptr, i16, i16, ptr, i32, i32, i32, i16, i16, ptr, ptr, i16, ptr, ptr, i32, i32, i32, i32, i32, i64, i32, i32, i16, ptr, ptr, i32, ptr, ptr, ptr, i16, i32, ptr, ptr, i16, ptr, ptr, i32, i16, ptr, ptr, ptr, ptr, i32, i32, i16, i16, i32, ptr, i16, ptr, i32, i32, i32, i32, i32, i32, ptr, i16, ptr, ptr, i32, i16, ptr, i32, i16, i16, ptr, ptr, ptr, i16, ptr, ptr, ptr, ptr, i16, i16, ptr, i16, ptr, i16, ptr, i16, ptr, i16, ptr, ptr, ptr, ptr, i16, ptr, ptr, ptr, i32, ptr, i32, ptr, ptr, i16, ptr, ptr, i32, i16, ptr, ptr, i16, i16, ptr, i16, ptr, ptr, ptr, i32, ptr, i16, i16, ptr, ptr, ptr, ptr, ptr, ptr, ptr, ptr, i16, i32, i16, ptr, ptr, ptr, ptr, i32, ptr, ptr, ptr, i16, ptr, ptr, ptr, i16, ptr, i16, ptr, i16, i16, ptr }
%struct.data_s = type { i32, i32, %union.anon }
%union.anon = type { ptr }
%struct.data_list_s = type { i32, i64, ptr, ptr }

@slurm_conf = external global %struct.slurm_conf_t, align 8
@.str.29 = private unnamed_addr constant [2 x i8] c"/\00", align 1
@.str.30 = private unnamed_addr constant [50 x i8] c"DATA: %s: split string from 0x%lx to %pD[%zu]=%pD\00", align 1
@__func__.data_list_split_str = private unnamed_addr constant [20 x i8] c"data_list_split_str\00", align 1

; Function Attrs: nounwind uwtable
define dso_local i32 @data_list_split_str(ptr noundef %0, ptr noundef %1, ptr noundef %2) #0 {
  %4 = alloca i32, align 4
  %5 = alloca ptr, align 8
  %6 = alloca ptr, align 8
  %7 = alloca ptr, align 8
  %8 = alloca ptr, align 8
  %9 = alloca ptr, align 8
  %10 = alloca ptr, align 8
  %11 = alloca i32, align 4
  %12 = alloca ptr, align 8
  store ptr %0, ptr %5, align 8
  store ptr %1, ptr %6, align 8
  store ptr %2, ptr %7, align 8
  call void @llvm.lifetime.start.p0(i64 8, ptr %8) #10
  store ptr null, ptr %8, align 8
  call void @llvm.lifetime.start.p0(i64 8, ptr %9) #10
  store ptr null, ptr %9, align 8
  call void @llvm.lifetime.start.p0(i64 8, ptr %10) #10
  %13 = load ptr, ptr %6, align 8
  %14 = call ptr @xstrdup(ptr noundef %13)
  store ptr %14, ptr %10, align 8
  %15 = load ptr, ptr %5, align 8
  %16 = getelementptr inbounds nuw %struct.data_s, ptr %15, i32 0, i32 1
  %17 = load i32, ptr %16, align 4
  %18 = icmp eq i32 %17, 65281
  br i1 %18, label %19, label %22

19:                                               ; preds = %3
  %20 = load ptr, ptr %5, align 8
  %21 = call ptr @data_set_list(ptr noundef %20)
  br label %22

22:                                               ; preds = %19, %3
  %23 = load ptr, ptr %5, align 8
  %24 = getelementptr inbounds nuw %struct.data_s, ptr %23, i32 0, i32 1
  %25 = load i32, ptr %24, align 4
  %26 = icmp ne i32 %25, 65282
  br i1 %26, label %27, label %28

27:                                               ; preds = %22
  store i32 -1, ptr %4, align 4
  store i32 1, ptr %11, align 4
  br label %75

28:                                               ; preds = %22
  %29 = load ptr, ptr %10, align 8
  %30 = icmp ne ptr %29, null
  br i1 %30, label %31, label %37

31:                                               ; preds = %28
  %32 = load ptr, ptr %10, align 8
  %33 = getelementptr inbounds i8, ptr %32, i64 0
  %34 = load i8, ptr %33, align 1
  %35 = icmp ne i8 %34, 0
  br i1 %35, label %37, label %36

36:                                               ; preds = %31
  call void @slurm_xfree(ptr noundef %10)
  br label %37

37:                                               ; preds = %36, %31, %28
  %38 = load ptr, ptr %10, align 8
  %39 = icmp ne ptr %38, null
  br i1 %39, label %41, label %40

40:                                               ; preds = %37
  store i32 0, ptr %4, align 4
  store i32 1, ptr %11, align 4
  br label %75

41:                                               ; preds = %37
  %42 = load ptr, ptr %10, align 8
  %43 = call ptr @strtok_r(ptr noundef %42, ptr noundef @.str.29, ptr noundef %8) #10
  store ptr %43, ptr %9, align 8
  br label %44

44:                                               ; preds = %72, %41
  %45 = load ptr, ptr %9, align 8
  %46 = icmp ne ptr %45, null
  br i1 %46, label %47, label %74

47:                                               ; preds = %44
  call void @llvm.lifetime.start.p0(i64 8, ptr %12) #10
  %48 = load ptr, ptr %5, align 8
  %49 = call ptr @data_list_append(ptr noundef %48)
  store ptr %49, ptr %12, align 8
  %50 = load ptr, ptr %9, align 8
  call void @xstrtrim(ptr noundef %50)
  %51 = load ptr, ptr %12, align 8
  %52 = load ptr, ptr %9, align 8
  %53 = call ptr @data_set_string(ptr noundef %51, ptr noundef %52)
  br label %54

54:                                               ; preds = %47
  %55 = load i64, ptr getelementptr inbounds nuw (%struct.slurm_conf_t, ptr @slurm_conf, i32 0, i32 42), align 8
  %56 = and i64 %55, 256
  %57 = icmp ne i64 %56, 0
  br i1 %57, label %58, label %70

58:                                               ; preds = %54
  %59 = load ptr, ptr %9, align 8
  %60 = load ptr, ptr %9, align 8
  %61 = call i64 @strlen(ptr noundef %60) #11
  %62 = load ptr, ptr %6, align 8
  %63 = load ptr, ptr %5, align 8
  %64 = load ptr, ptr %5, align 8
  %65 = getelementptr inbounds nuw %struct.data_s, ptr %64, i32 0, i32 2
  %66 = load ptr, ptr %65, align 8
  %67 = getelementptr inbounds nuw %struct.data_list_s, ptr %66, i32 0, i32 1
  %68 = load i64, ptr %67, align 8
  %69 = load ptr, ptr %12, align 8
  call void (ptr, i64, i64, i64, ptr, ...) @_log_flag_hex(ptr noundef %59, i64 noundef %61, i64 noundef -1, i64 noundef -1, ptr noundef @.str.30, ptr noundef @__func__.data_list_split_str, ptr noundef %62, ptr noundef %63, i64 noundef %68, ptr noundef %69)
  br label %70

70:                                               ; preds = %58, %54
  br label %71

71:                                               ; preds = %70
  br label %72

72:                                               ; preds = %71
  %73 = call ptr @strtok_r(ptr noundef null, ptr noundef @.str.29, ptr noundef %8) #10
  store ptr %73, ptr %9, align 8
  call void @llvm.lifetime.end.p0(i64 8, ptr %12) #10
  br label %44, !llvm.loop !23

74:                                               ; preds = %44
  call void @slurm_xfree(ptr noundef %10)
  store i32 0, ptr %4, align 4
  store i32 1, ptr %11, align 4
  br label %75

75:                                               ; preds = %74, %40, %27
  call void @llvm.lifetime.end.p0(i64 8, ptr %10) #10
  call void @llvm.lifetime.end.p0(i64 8, ptr %9) #10
  call void @llvm.lifetime.end.p0(i64 8, ptr %8) #10
  %76 = load i32, ptr %4, align 4
  ret i32 %76
}