; Function Attrs: nounwind uwtable
define dso_local range(i32 -1, 1) i32 @data_list_split_str(ptr noundef %0, ptr noundef %1, ptr noundef readnone captures(none) %2) local_unnamed_addr #0 {
  %4 = alloca ptr, align 8
  %5 = alloca ptr, align 8
  call void @llvm.lifetime.start.p0(i64 8, ptr nonnull %4) #16
  store ptr null, ptr %4, align 8
  call void @llvm.lifetime.start.p0(i64 8, ptr nonnull %5) #16
  %6 = tail call ptr @xstrdup(ptr noundef %1) #16
  store ptr %6, ptr %5, align 8
  %7 = getelementptr inbounds nuw i8, ptr %0, i64 4
  %8 = load i32, ptr %7, align 4
  %9 = icmp eq i32 %8, 65281
  br i1 %9, label %10, label %12

10:                                               ; preds = %3
  %11 = tail call ptr @data_set_list(ptr noundef nonnull %0)
  %.pr = load i32, ptr %7, align 4
  br label %12

12:                                               ; preds = %10, %3
  %13 = phi i32 [ %.pr, %10 ], [ %8, %3 ]
  %.not = icmp eq i32 %13, 65282
  br i1 %.not, label %14, label %.thread

14:                                               ; preds = %12
  %.not18 = icmp eq ptr %6, null
  br i1 %.not18, label %.thread, label %15

15:                                               ; preds = %14
  %16 = load i8, ptr %6, align 1
  %.not19 = icmp eq i8 %16, 0
  br i1 %.not19, label %17, label %.thread25

17:                                               ; preds = %15
  call void @slurm_xfree(ptr noundef nonnull %5) #16
  %.pr23 = load ptr, ptr %5, align 8
  %.not20 = icmp eq ptr %.pr23, null
  br i1 %.not20, label %.thread, label %.thread25

.thread25:                                        ; preds = %15, %17
  %18 = phi ptr [ %.pr23, %17 ], [ %6, %15 ]
  %19 = call ptr @strtok_r(ptr noundef nonnull %18, ptr noundef nonnull @.str.29, ptr noundef nonnull %4) #16
  %.not2127 = icmp eq ptr %19, null
  br i1 %.not2127, label %._crit_edge, label %.lr.ph

.lr.ph:                                           ; preds = %.thread25
  %20 = getelementptr inbounds nuw i8, ptr %0, i64 8
  br label %21

21:                                               ; preds = %.lr.ph, %31
  %.01528 = phi ptr [ %19, %.lr.ph ], [ %32, %31 ]
  %22 = call ptr @data_list_append(ptr noundef %0)
  call void @xstrtrim(ptr noundef nonnull %.01528) #16
  %23 = call ptr @data_set_string(ptr noundef %22, ptr noundef nonnull %.01528)
  %24 = load i64, ptr getelementptr inbounds nuw (i8, ptr @slurm_conf, i64 320), align 8
  %25 = and i64 %24, 256
  %.not22 = icmp eq i64 %25, 0
  br i1 %.not22, label %31, label %26

26:                                               ; preds = %21
  %27 = call i64 @strlen(ptr noundef nonnull dereferenceable(1) %.01528) #17
  %28 = load ptr, ptr %20, align 8
  %29 = getelementptr inbounds nuw i8, ptr %28, i64 8
  %30 = load i64, ptr %29, align 8
  call void (ptr, i64, i64, i64, ptr, ...) @_log_flag_hex(ptr noundef nonnull %.01528, i64 noundef %27, i64 noundef -1, i64 noundef -1, ptr noundef nonnull @.str.30, ptr noundef nonnull @__func__.data_list_split_str, ptr noundef %1, ptr noundef %0, i64 noundef %30, ptr noundef %22) #16
  br label %31

31:                                               ; preds = %26, %21
  %32 = call ptr @strtok_r(ptr noundef null, ptr noundef nonnull @.str.29, ptr noundef nonnull %4) #16
  %.not21 = icmp eq ptr %32, null
  br i1 %.not21, label %._crit_edge, label %21, !llvm.loop !24

._crit_edge:                                      ; preds = %31, %.thread25
  call void @slurm_xfree(ptr noundef nonnull %5) #16
  br label %.thread

.thread:                                          ; preds = %14, %17, %12, %._crit_edge
  %.0 = phi i32 [ 0, %._crit_edge ], [ -1, %12 ], [ 0, %17 ], [ 0, %14 ]
  call void @llvm.lifetime.end.p0(i64 8, ptr nonnull %5) #16
  call void @llvm.lifetime.end.p0(i64 8, ptr nonnull %4) #16
  ret i32 %.0
}